; Function Attrs: mustprogress uwtable
define dso_local void @_ZN3net18ReliableQuicStream22UpdateSendWindowOffsetEm(ptr noundef nonnull align 8 dereferenceable(377) %this, i64 noundef %new_window) local_unnamed_addr #2 align 2 {
entry:
  %flow_controller_ = getelementptr inbounds i8, ptr %this, i64 272
  %call = tail call noundef zeroext i1 @_ZN3net18QuicFlowController22UpdateSendWindowOffsetEm(ptr noundef nonnull align 8 dereferenceable(96) %flow_controller_, i64 noundef %new_window)
  br i1 %call, label %if.then, label %if.end

if.then:                                          ; preds = %entry
  %vtable = load ptr, ptr %this, align 8
  %vfn = getelementptr inbounds i8, ptr %vtable, i64 24
  %0 = load ptr, ptr %vfn, align 8
  tail call void %0(ptr noundef nonnull align 8 dereferenceable(377) %this)
  br label %if.end

if.end:                                           ; preds = %if.then, %entry
  ret void
}